target datalayout = "e-m:e-p270:32:32-p271:32:32-p272:64:64-i64:64-i128:128-f80:128-n8:16:32:64-S128"
target triple = "x86_64-pc-linux-gnu"

%struct.FLAC__BitReader = type { ptr, i32, i32, i32, i32, i32, i32, i32, i32, i32, i32, i32, ptr, ptr }

; Function Attrs: inlinehint nounwind sspstrong uwtable
define hidden i32 @FLAC__bitreader_get_input_bits_unconsumed(ptr noundef %0) #5 {
  %2 = alloca ptr, align 8
  store ptr %0, ptr %2, align 8, !tbaa !3
  %3 = load ptr, ptr %2, align 8, !tbaa !3
  %4 = getelementptr inbounds nuw %struct.FLAC__BitReader, ptr %3, i32 0, i32 2
  %5 = load i32, ptr %4, align 4, !tbaa !14
  %6 = load ptr, ptr %2, align 8, !tbaa !3
  %7 = getelementptr inbounds nuw %struct.FLAC__BitReader, ptr %6, i32 0, i32 4
  %8 = load i32, ptr %7, align 4, !tbaa !16
  %9 = sub i32 %5, %8
  %10 = mul i32 %9, 64
  %11 = load ptr, ptr %2, align 8, !tbaa !3
  %12 = getelementptr inbounds nuw %struct.FLAC__BitReader, ptr %11, i32 0, i32 3
  %13 = load i32, ptr %12, align 8, !tbaa !13
  %14 = mul i32 %13, 8
  %15 = add i32 %10, %14
  %16 = load ptr, ptr %2, align 8, !tbaa !3
  %17 = getelementptr inbounds nuw %struct.FLAC__BitReader, ptr %16, i32 0, i32 5
  %18 = load i32, ptr %17, align 8, !tbaa !15
  %19 = sub i32 %15, %18
  ret i32 %19
}